; Function Attrs: mustprogress uwtable
define hidden void @_ZN4cvc58internal6theory7strings5utils16mkForallInternalEPNS0_11NodeManagerENS0_12NodeTemplateILb1EEES7_(ptr dead_on_unwind noalias writable sret(%"class.cvc5::internal::NodeTemplate") align 8 %0, ptr noundef %1, ptr noundef readonly captures(none) %2, ptr noundef readonly captures(none) %3) local_unnamed_addr #4 personality ptr @__gxx_personality_v0 {
  %5 = alloca %"class.cvc5::internal::NodeTemplate", align 8
  %6 = alloca %"class.cvc5::internal::NodeTemplate", align 8
  %7 = load ptr, ptr %2, align 8, !tbaa !8
  store ptr %7, ptr %5, align 8, !tbaa !8
  %8 = load i64, ptr %7, align 8
  %9 = lshr i64 %8, 40
  %10 = trunc nuw nsw i64 %9 to i32
  %11 = and i32 %10, 1048575
  %12 = icmp samesign ult i32 %11, 1048574
  br i1 %12, label %13, label %18, !prof !15

13:                                               ; preds = %4
  %14 = add i64 %8, 1099511627776
  %15 = and i64 %14, 1152920405095219200
  %16 = and i64 %8, -1152920405095219201
  %17 = or disjoint i64 %15, %16
  store i64 %17, ptr %7, align 8
  br label %_ZN4cvc58internal12NodeTemplateILb1EEC2ERKS2_.exit

18:                                               ; preds = %4
  %19 = icmp eq i32 %11, 1048574
  br i1 %19, label %20, label %_ZN4cvc58internal12NodeTemplateILb1EEC2ERKS2_.exit, !prof !16

20:                                               ; preds = %18
  %21 = or i64 %8, 1152920405095219200
  store i64 %21, ptr %7, align 8
  tail call void @_ZN4cvc58internal4expr9NodeValue20markRefCountMaxedOutEv(ptr noundef nonnull align 8 dereferenceable(24) %7)
  br label %_ZN4cvc58internal12NodeTemplateILb1EEC2ERKS2_.exit

_ZN4cvc58internal12NodeTemplateILb1EEC2ERKS2_.exit: ; preds = %13, %18, %20
  %22 = load ptr, ptr %3, align 8, !tbaa !8
  store ptr %22, ptr %6, align 8, !tbaa !8
  %23 = load i64, ptr %22, align 8
  %24 = lshr i64 %23, 40
  %25 = trunc nuw nsw i64 %24 to i32
  %26 = and i32 %25, 1048575
  %27 = icmp samesign ult i32 %26, 1048574
  br i1 %27, label %28, label %33, !prof !15

28:                                               ; preds = %_ZN4cvc58internal12NodeTemplateILb1EEC2ERKS2_.exit
  %29 = add i64 %23, 1099511627776
  %30 = and i64 %29, 1152920405095219200
  %31 = and i64 %23, -1152920405095219201
  %32 = or disjoint i64 %30, %31
  store i64 %32, ptr %22, align 8
  br label %_ZN4cvc58internal12NodeTemplateILb1EEC2ERKS2_.exit4

33:                                               ; preds = %_ZN4cvc58internal12NodeTemplateILb1EEC2ERKS2_.exit
  %34 = icmp eq i32 %26, 1048574
  br i1 %34, label %35, label %_ZN4cvc58internal12NodeTemplateILb1EEC2ERKS2_.exit4, !prof !16

35:                                               ; preds = %33
  %36 = or i64 %23, 1152920405095219200
  store i64 %36, ptr %22, align 8
  invoke void @_ZN4cvc58internal4expr9NodeValue20markRefCountMaxedOutEv(ptr noundef nonnull align 8 dereferenceable(24) %22)
          to label %_ZN4cvc58internal12NodeTemplateILb1EEC2ERKS2_.exit4 unwind label %64

_ZN4cvc58internal12NodeTemplateILb1EEC2ERKS2_.exit4: ; preds = %33, %28, %35
  invoke void @_ZN4cvc58internal6theory11quantifiers15BoundedIntegers15mkBoundedForallEPNS0_11NodeManagerENS0_12NodeTemplateILb1EEES7_(ptr dead_on_unwind writable sret(%"class.cvc5::internal::NodeTemplate") align 8 %0, ptr noundef %1, ptr noundef nonnull %5, ptr noundef nonnull %6)
          to label %37 unwind label %66

37:                                               ; preds = %_ZN4cvc58internal12NodeTemplateILb1EEC2ERKS2_.exit4
  %38 = load ptr, ptr %6, align 8, !tbaa !8
  %39 = load i64, ptr %38, align 8
  %40 = and i64 %39, 1152920405095219200
  %.not.i.i = icmp eq i64 %40, 1152920405095219200
  br i1 %.not.i.i, label %_ZN4cvc58internal12NodeTemplateILb1EED2Ev.exit, label %41, !prof !16

41:                                               ; preds = %37
  %42 = add i64 %39, 1152920405095219200
  %43 = and i64 %42, 1152920405095219200
  %44 = and i64 %39, -1152920405095219201
  %45 = or disjoint i64 %43, %44
  store i64 %45, ptr %38, align 8
  %46 = icmp eq i64 %43, 0
  br i1 %46, label %47, label %_ZN4cvc58internal12NodeTemplateILb1EED2Ev.exit, !prof !16

47:                                               ; preds = %41
  invoke void @_ZN4cvc58internal4expr9NodeValue15markForDeletionEv(ptr noundef nonnull align 8 dereferenceable(24) %38)
          to label %_ZN4cvc58internal12NodeTemplateILb1EED2Ev.exit unwind label %48

48:                                               ; preds = %47
  %49 = landingpad { ptr, i32 }
          catch ptr null
  %50 = extractvalue { ptr, i32 } %49, 0
  call void @__clang_call_terminate(ptr %50) #24
  unreachable

_ZN4cvc58internal12NodeTemplateILb1EED2Ev.exit:   ; preds = %37, %41, %47
  %51 = load ptr, ptr %5, align 8, !tbaa !8
  %52 = load i64, ptr %51, align 8
  %53 = and i64 %52, 1152920405095219200
  %.not.i.i5 = icmp eq i64 %53, 1152920405095219200
  br i1 %.not.i.i5, label %_ZN4cvc58internal12NodeTemplateILb1EED2Ev.exit6, label %54, !prof !16

54:                                               ; preds = %_ZN4cvc58internal12NodeTemplateILb1EED2Ev.exit
  %55 = add i64 %52, 1152920405095219200
  %56 = and i64 %55, 1152920405095219200
  %57 = and i64 %52, -1152920405095219201
  %58 = or disjoint i64 %56, %57
  store i64 %58, ptr %51, align 8
  %59 = icmp eq i64 %56, 0
  br i1 %59, label %60, label %_ZN4cvc58internal12NodeTemplateILb1EED2Ev.exit6, !prof !16

60:                                               ; preds = %54
  invoke void @_ZN4cvc58internal4expr9NodeValue15markForDeletionEv(ptr noundef nonnull align 8 dereferenceable(24) %51)
          to label %_ZN4cvc58internal12NodeTemplateILb1EED2Ev.exit6 unwind label %61

61:                                               ; preds = %60
  %62 = landingpad { ptr, i32 }
          catch ptr null
  %63 = extractvalue { ptr, i32 } %62, 0
  call void @__clang_call_terminate(ptr %63) #24
  unreachable

_ZN4cvc58internal12NodeTemplateILb1EED2Ev.exit6:  ; preds = %_ZN4cvc58internal12NodeTemplateILb1EED2Ev.exit, %54, %60
  ret void

64:                                               ; preds = %35
  %65 = landingpad { ptr, i32 }
          cleanup
  br label %68

66:                                               ; preds = %_ZN4cvc58internal12NodeTemplateILb1EEC2ERKS2_.exit4
  %67 = landingpad { ptr, i32 }
          cleanup
  call void @_ZN4cvc58internal12NodeTemplateILb1EED2Ev(ptr noundef nonnull align 8 dereferenceable(8) %6) #23
  br label %68

68:                                               ; preds = %66, %64
  %.pn = phi { ptr, i32 } [ %67, %66 ], [ %65, %64 ]
  call void @_ZN4cvc58internal12NodeTemplateILb1EED2Ev(ptr noundef nonnull align 8 dereferenceable(8) %5) #23
  resume { ptr, i32 } %.pn
}